; Function Attrs: mustprogress nounwind uwtable
define hidden void @_ZN12Dependencies10initializeEP5ciEnv(ptr nocapture noundef nonnull writeonly align 8 dereferenceable(192) %0, ptr nocapture noundef readonly %1) local_unnamed_addr #0 align 2 {
  %3 = load ptr, ptr %1, align 8
  %4 = getelementptr inbounds i8, ptr %1, i64 64
  %5 = load ptr, ptr %4, align 8
  %6 = getelementptr inbounds i8, ptr %0, i64 160
  store ptr %5, ptr %6, align 8
  %7 = getelementptr inbounds i8, ptr %1, i64 120
  %8 = load ptr, ptr %7, align 8
  %9 = getelementptr inbounds i8, ptr %0, i64 168
  store ptr %8, ptr %9, align 8
  %10 = tail call noundef ptr @_ZN6AnyObjnwEmP5Arena(i64 noundef 24, ptr noundef %3) #18
  %11 = tail call noundef ptr @_ZN27GrowableArrayArenaAllocator8allocateEiiP5Arena(i32 noundef 500, i32 noundef 4, ptr noundef %3) #18
  store i32 0, ptr %10, align 4
  %12 = getelementptr inbounds i8, ptr %10, i64 4
  store i32 500, ptr %12, align 4
  %13 = getelementptr inbounds i8, ptr %10, i64 8
  store ptr %11, ptr %13, align 8
  tail call void @llvm.memset.p0.i64(ptr noundef nonnull align 4 dereferenceable(2000) %11, i8 0, i64 2000, i1 false)
  %14 = getelementptr inbounds i8, ptr %10, i64 16
  %15 = ptrtoint ptr %3 to i64
  store i64 %15, ptr %14, align 8
  store ptr %10, ptr %0, align 8
  %16 = getelementptr inbounds i8, ptr %0, i64 80
  store i8 0, ptr %16, align 8
  %17 = getelementptr inbounds i8, ptr %0, i64 8
  br label %18

18:                                               ; preds = %2, %18
  %indvars.iv = phi i64 [ 1, %2 ], [ %indvars.iv.next, %18 ]
  %19 = tail call noundef ptr @_ZN6AnyObjnwEmP5Arena(i64 noundef 24, ptr noundef %3) #18
  %20 = tail call noundef ptr @_ZN27GrowableArrayArenaAllocator8allocateEiiP5Arena(i32 noundef 10, i32 noundef 8, ptr noundef %3) #18
  store i32 0, ptr %19, align 4
  %21 = getelementptr inbounds i8, ptr %19, i64 4
  store i32 10, ptr %21, align 4
  %22 = getelementptr inbounds i8, ptr %19, i64 8
  store ptr %20, ptr %22, align 8
  tail call void @llvm.memset.p0.i64(ptr noundef nonnull align 8 dereferenceable(80) %20, i8 0, i64 80, i1 false)
  %23 = getelementptr inbounds i8, ptr %19, i64 16
  store i64 %15, ptr %23, align 8
  %24 = getelementptr inbounds [9 x ptr], ptr %17, i64 0, i64 %indvars.iv
  store ptr %19, ptr %24, align 8
  %indvars.iv.next = add nuw nsw i64 %indvars.iv, 1
  %exitcond.not = icmp eq i64 %indvars.iv.next, 9
  br i1 %exitcond.not, label %25, label %18, !llvm.loop !6

25:                                               ; preds = %18
  %26 = getelementptr inbounds i8, ptr %0, i64 176
  store ptr null, ptr %26, align 8
  %27 = getelementptr inbounds i8, ptr %0, i64 184
  store i64 -1, ptr %27, align 8
  ret void
}